target datalayout = "e-m:e-p270:32:32-p271:32:32-p272:64:64-i64:64-i128:128-f80:128-n8:16:32:64-S128"
target triple = "x86_64-pc-linux-gnu"

%class.BitMap = type { ptr, i64 }
%class.G1HeapRegionManager = type { ptr, ptr, %class.G1CommittedRegionMap, i32, [4 x i8], %class.G1HeapRegionTable, ptr, ptr, %class.G1FreeRegionList }
%class.G1CommittedRegionMap = type { ptr, %class.CHeapBitMap, %class.CHeapBitMap, i32, i32 }
%class.CHeapBitMap = type <{ %class.GrowableBitMap, i8, [7 x i8] }>
%class.GrowableBitMap = type { %class.BitMap }
%class.G1HeapRegionTable = type { %class.G1BiasedMappedArray.base, [4 x i8] }
%class.G1BiasedMappedArray.base = type { %class.G1BiasedMappedArrayBase.base }
%class.G1BiasedMappedArrayBase.base = type <{ ptr, ptr, ptr, i64, ptr, i64, i32 }>
%class.G1FreeRegionList = type { %class.G1HeapRegionSetBase.base, ptr, ptr, ptr, ptr }
%class.G1HeapRegionSetBase.base = type <{ ptr, ptr, i32, [4 x i8], ptr, i8 }>

; Function Attrs: mustprogress nounwind uwtable
define hidden void @_ZN19G1HeapRegionManager31clear_auxiliary_data_structuresEjj(ptr noundef nonnull align 8 dereferenceable(232) %0, i32 noundef %1, i32 noundef %2) #1 align 2 {
  %4 = alloca ptr, align 8
  %5 = alloca i32, align 4
  %6 = alloca i32, align 4
  store ptr %0, ptr %4, align 8
  store i32 %1, ptr %5, align 4
  store i32 %2, ptr %6, align 4
  %7 = load ptr, ptr %4, align 8
  %8 = getelementptr inbounds %class.G1HeapRegionManager, ptr %7, i32 0, i32 7
  %9 = load ptr, ptr %8, align 8
  %10 = load i32, ptr %5, align 4
  %11 = load i32, ptr %6, align 4
  %12 = zext i32 %11 to i64
  call void @_ZN21G1RegionToSpaceMapper22signal_mapping_changedEjm(ptr noundef nonnull align 8 dereferenceable(129) %9, i32 noundef %10, i64 noundef %12)
  %13 = getelementptr inbounds %class.G1HeapRegionManager, ptr %7, i32 0, i32 0
  %14 = load ptr, ptr %13, align 8
  %15 = load i32, ptr %5, align 4
  %16 = load i32, ptr %6, align 4
  %17 = zext i32 %16 to i64
  call void @_ZN21G1RegionToSpaceMapper22signal_mapping_changedEjm(ptr noundef nonnull align 8 dereferenceable(129) %14, i32 noundef %15, i64 noundef %17)
  %18 = getelementptr inbounds %class.G1HeapRegionManager, ptr %7, i32 0, i32 1
  %19 = load ptr, ptr %18, align 8
  %20 = load i32, ptr %5, align 4
  %21 = load i32, ptr %6, align 4
  %22 = zext i32 %21 to i64
  call void @_ZN21G1RegionToSpaceMapper22signal_mapping_changedEjm(ptr noundef nonnull align 8 dereferenceable(129) %19, i32 noundef %20, i64 noundef %22)
  ret void
}

; Function Attrs: mustprogress nounwind uwtable
define hidden void @_ZN19G1HeapRegionManager18reactivate_regionsEjj(ptr noundef nonnull align 8 dereferenceable(232) %0, i32 noundef %1, i32 noundef %2) #1 align 2 {
  %4 = alloca ptr, align 8
  %5 = alloca i32, align 4
  %6 = alloca i32, align 4
  store ptr %0, ptr %4, align 8
  store i32 %1, ptr %5, align 4
  store i32 %2, ptr %6, align 4
  %7 = load ptr, ptr %4, align 8
  %8 = load i32, ptr %5, align 4
  %9 = load i32, ptr %6, align 4
  call void @_ZN19G1HeapRegionManager31clear_auxiliary_data_structuresEjj(ptr noundef nonnull align 8 dereferenceable(232) %7, i32 noundef %8, i32 noundef %9)
  %10 = getelementptr inbounds %class.G1HeapRegionManager, ptr %7, i32 0, i32 2
  %11 = load i32, ptr %5, align 4
  %12 = load i32, ptr %5, align 4
  %13 = load i32, ptr %6, align 4
  %14 = add i32 %12, %13
  call void @_ZN20G1CommittedRegionMap10reactivateEjj(ptr noundef nonnull align 8 dereferenceable(64) %10, i32 noundef %11, i32 noundef %14)
  %15 = load i32, ptr %5, align 4
  %16 = load i32, ptr %6, align 4
  call void @_ZN19G1HeapRegionManager18initialize_regionsEjj(ptr noundef nonnull align 8 dereferenceable(232) %7, i32 noundef %15, i32 noundef %16)
  ret void
}