; Function Attrs: mustprogress nounwind uwtable
define hidden void @_ZN19G1HeapRegionManager18reactivate_regionsEjj(ptr noundef nonnull align 8 dereferenceable(232) %0, i32 noundef %1, i32 noundef %2) local_unnamed_addr #0 align 2 {
  %4 = getelementptr inbounds i8, ptr %0, i64 152
  %5 = load ptr, ptr %4, align 8
  %6 = zext i32 %2 to i64
  tail call void @_ZN21G1RegionToSpaceMapper22signal_mapping_changedEjm(ptr noundef nonnull align 8 dereferenceable(129) %5, i32 noundef %1, i64 noundef %6) #16
  %7 = load ptr, ptr %0, align 8
  tail call void @_ZN21G1RegionToSpaceMapper22signal_mapping_changedEjm(ptr noundef nonnull align 8 dereferenceable(129) %7, i32 noundef %1, i64 noundef %6) #16
  %8 = getelementptr inbounds i8, ptr %0, i64 8
  %9 = load ptr, ptr %8, align 8
  tail call void @_ZN21G1RegionToSpaceMapper22signal_mapping_changedEjm(ptr noundef nonnull align 8 dereferenceable(129) %9, i32 noundef %1, i64 noundef %6) #16
  %10 = getelementptr inbounds i8, ptr %0, i64 16
  %11 = add i32 %2, %1
  tail call void @_ZN20G1CommittedRegionMap10reactivateEjj(ptr noundef nonnull align 8 dereferenceable(64) %10, i32 noundef %1, i32 noundef %11) #16
  tail call void @_ZN19G1HeapRegionManager18initialize_regionsEjj(ptr noundef nonnull align 8 dereferenceable(232) %0, i32 noundef %1, i32 noundef %2)
  ret void
}